; Function Attrs: mustprogress nofree norecurse nosync nounwind memory(write, argmem: readwrite, inaccessiblemem: none) uwtable
define void @_ZN3gmx24AnalysisDataStorageFrame11clearValuesEv(ptr nocapture noundef nonnull align 8 dereferenceable(45) %0) local_unnamed_addr #11 align 2 {
  %2 = getelementptr inbounds i8, ptr %0, i64 44
  %3 = load i8, ptr %2, align 4
  %4 = trunc i8 %3 to i1
  br i1 %4, label %5, label %.loopexit

5:                                                ; preds = %1
  %6 = getelementptr inbounds i8, ptr %0, i64 8
  %7 = load ptr, ptr %6, align 8
  %8 = getelementptr inbounds i8, ptr %0, i64 16
  %9 = load ptr, ptr %8, align 8
  %.not4 = icmp eq ptr %7, %9
  br i1 %.not4, label %.loopexit, label %.lr.ph

.lr.ph:                                           ; preds = %5, %.lr.ph
  %.sroa.01.05 = phi ptr [ %10, %.lr.ph ], [ %7, %5 ]
  tail call void @llvm.memset.p0.i64(ptr noundef nonnull align 8 dereferenceable(16) %.sroa.01.05, i8 0, i64 16, i1 false)
  %10 = getelementptr inbounds i8, ptr %.sroa.01.05, i64 16
  %11 = load ptr, ptr %8, align 8
  %.not = icmp eq ptr %10, %11
  br i1 %.not, label %.loopexit, label %.lr.ph, !llvm.loop !27

.loopexit:                                        ; preds = %.lr.ph, %5, %1
  store i8 0, ptr %2, align 4
  ret void
}